target datalayout = "e-m:e-p270:32:32-p271:32:32-p272:64:64-i64:64-i128:128-f80:128-n8:16:32:64-S128"
target triple = "x86_64-pc-linux-gnu"

%struct._object = type { %union.anon, ptr }
%union.anon = type { i64 }
%struct.rangeobject = type { %struct._object, ptr, ptr, ptr, ptr }

@.str.3 = private unnamed_addr constant [14 x i8] c"range(%R, %R)\00", align 1
@.str.4 = private unnamed_addr constant [18 x i8] c"range(%R, %R, %R)\00", align 1

; Function Attrs: nounwind uwtable
define internal ptr @range_repr(ptr noundef %0) #0 {
  %2 = alloca ptr, align 8
  %3 = alloca ptr, align 8
  %4 = alloca i64, align 8
  %5 = alloca i32, align 4
  store ptr %0, ptr %3, align 8, !tbaa !4
  call void @llvm.lifetime.start.p0(i64 8, ptr %4) #5
  %6 = load ptr, ptr %3, align 8, !tbaa !4
  %7 = getelementptr inbounds nuw %struct.rangeobject, ptr %6, i32 0, i32 3
  %8 = load ptr, ptr %7, align 8, !tbaa !14
  %9 = call i64 @PyNumber_AsSsize_t(ptr noundef %8, ptr noundef null)
  store i64 %9, ptr %4, align 8, !tbaa !16
  %10 = load i64, ptr %4, align 8, !tbaa !16
  %11 = icmp eq i64 %10, -1
  br i1 %11, label %12, label %16

12:                                               ; preds = %1
  %13 = call ptr @PyErr_Occurred()
  %14 = icmp ne ptr %13, null
  br i1 %14, label %15, label %16

15:                                               ; preds = %12
  store ptr null, ptr %2, align 8
  store i32 1, ptr %5, align 4
  br label %38

16:                                               ; preds = %12, %1
  %17 = load i64, ptr %4, align 8, !tbaa !16
  %18 = icmp eq i64 %17, 1
  br i1 %18, label %19, label %27

19:                                               ; preds = %16
  %20 = load ptr, ptr %3, align 8, !tbaa !4
  %21 = getelementptr inbounds nuw %struct.rangeobject, ptr %20, i32 0, i32 1
  %22 = load ptr, ptr %21, align 8, !tbaa !8
  %23 = load ptr, ptr %3, align 8, !tbaa !4
  %24 = getelementptr inbounds nuw %struct.rangeobject, ptr %23, i32 0, i32 2
  %25 = load ptr, ptr %24, align 8, !tbaa !13
  %26 = call ptr (ptr, ...) @PyUnicode_FromFormat(ptr noundef @.str.3, ptr noundef %22, ptr noundef %25)
  store ptr %26, ptr %2, align 8
  store i32 1, ptr %5, align 4
  br label %38

27:                                               ; preds = %16
  %28 = load ptr, ptr %3, align 8, !tbaa !4
  %29 = getelementptr inbounds nuw %struct.rangeobject, ptr %28, i32 0, i32 1
  %30 = load ptr, ptr %29, align 8, !tbaa !8
  %31 = load ptr, ptr %3, align 8, !tbaa !4
  %32 = getelementptr inbounds nuw %struct.rangeobject, ptr %31, i32 0, i32 2
  %33 = load ptr, ptr %32, align 8, !tbaa !13
  %34 = load ptr, ptr %3, align 8, !tbaa !4
  %35 = getelementptr inbounds nuw %struct.rangeobject, ptr %34, i32 0, i32 3
  %36 = load ptr, ptr %35, align 8, !tbaa !14
  %37 = call ptr (ptr, ...) @PyUnicode_FromFormat(ptr noundef @.str.4, ptr noundef %30, ptr noundef %33, ptr noundef %36)
  store ptr %37, ptr %2, align 8
  store i32 1, ptr %5, align 4
  br label %38

38:                                               ; preds = %27, %19, %15
  call void @llvm.lifetime.end.p0(i64 8, ptr %4) #5
  %39 = load ptr, ptr %2, align 8
  ret ptr %39
}