; Function Attrs: nounwind uwtable
define internal ptr @range_repr(ptr noundef readonly captures(none) %0) #0 {
  %2 = getelementptr inbounds nuw i8, ptr %0, i64 32
  %3 = load ptr, ptr %2, align 8, !tbaa !14
  %4 = tail call i64 @PyNumber_AsSsize_t(ptr noundef %3, ptr noundef null) #6
  switch i64 %4, label %13 [
    i64 -1, label %5
    i64 1, label %7
  ]

5:                                                ; preds = %1
  %6 = tail call ptr @PyErr_Occurred() #6
  %.not = icmp eq ptr %6, null
  br i1 %.not, label %13, label %20

7:                                                ; preds = %1
  %8 = getelementptr inbounds nuw i8, ptr %0, i64 16
  %9 = load ptr, ptr %8, align 8, !tbaa !4
  %10 = getelementptr inbounds nuw i8, ptr %0, i64 24
  %11 = load ptr, ptr %10, align 8, !tbaa !13
  %12 = tail call ptr (ptr, ...) @PyUnicode_FromFormat(ptr noundef nonnull @.str.3, ptr noundef %9, ptr noundef %11) #6
  br label %20

13:                                               ; preds = %5, %1
  %14 = getelementptr inbounds nuw i8, ptr %0, i64 16
  %15 = load ptr, ptr %14, align 8, !tbaa !4
  %16 = getelementptr inbounds nuw i8, ptr %0, i64 24
  %17 = load ptr, ptr %16, align 8, !tbaa !13
  %18 = load ptr, ptr %2, align 8, !tbaa !14
  %19 = tail call ptr (ptr, ...) @PyUnicode_FromFormat(ptr noundef nonnull @.str.4, ptr noundef %15, ptr noundef %17, ptr noundef %18) #6
  br label %20

20:                                               ; preds = %5, %13, %7
  %.0 = phi ptr [ %12, %7 ], [ %19, %13 ], [ null, %5 ]
  ret ptr %.0
}